target datalayout = "e-m:e-p270:32:32-p271:32:32-p272:64:64-i64:64-i128:128-f80:128-n8:16:32:64-S128"
target triple = "x86_64-pc-linux-gnu"

%struct.AVCodecContext = type { ptr, i32, i32, ptr, i32, i32, ptr, ptr, ptr, i64, i32, i32, ptr, i32, %struct.AVRational, %struct.AVRational, %struct.AVRational, i32, i32, i32, i32, i32, %struct.AVRational, i32, i32, i32, i32, i32, i32, i32, i32, i32, i32, i32, ptr, ptr, i32, float, float, float, float, float, float, float, float, float, i32, i32, i32, i32, i32, i32, i32, i32, i32, i32, i32, i32, ptr, ptr, ptr, i32, i32, i32, i32, i32, i32, i32, i32, i32, i32, %struct.AVChannelLayout, i32, i32, i32, i32, i32, i32, i32, i32, ptr, i32, i32, i32, float, float, i32, i32, i32, i32, i32, ptr, i64, i64, float, float, i32, i32, ptr, ptr, i32, i32, i32, i32, i32, ptr, ptr, ptr, ptr, i32, i32, [8 x i64], i32, i32, i32, i32, i32, i32, i32, ptr, ptr, i32, i32, i32, i32, i32, i32, i32, i32, i32, i32, ptr, ptr, i32, i32, ptr, ptr, ptr, ptr, i32, i32, i64, i32, i32, i64, ptr, i64, ptr, i32, ptr, i32 }
%struct.AVRational = type { i32, i32 }
%struct.AVChannelLayout = type { i32, i32, %union.anon.0, ptr }
%union.anon.0 = type { i64 }
%struct.RKAContext = type { ptr, %struct.ACoder, [2 x %struct.ChContext], i32, i32, i32, i32, i32, i32, i32, i32, [2 x [257 x i32]], %struct.AdaptiveModel, %struct.AdaptiveModel }
%struct.ACoder = type { %struct.GetByteContext, i32, i32, i32 }
%struct.GetByteContext = type { ptr, ptr, ptr }
%struct.ChContext = type { i32, i32, i32, i32, i32, ptr, ptr, [2 x ptr], %struct.AdaptiveModel, %struct.AdaptiveModel, %struct.AdaptiveModel, [11 x %struct.AdaptiveModel], [4 x [11 x %struct.Model64]], [133632 x i32], [133632 x i32] }
%struct.Model64 = type { [2 x i32], [2 x i32], i32, i32, [65 x i16], [65 x i16] }
%struct.AdaptiveModel = type { i32, i32, i32, i16, i16, i16, [2 x ptr] }

; Function Attrs: nounwind uwtable
define internal void @adaptive_model_free(ptr noundef %0) #1 {
  %2 = alloca ptr, align 8
  store ptr %0, ptr %2, align 8, !tbaa !104
  %3 = load ptr, ptr %2, align 8, !tbaa !104
  %4 = getelementptr inbounds nuw %struct.AdaptiveModel, ptr %3, i32 0, i32 6
  %5 = getelementptr inbounds [2 x ptr], ptr %4, i64 0, i64 0
  call void @av_freep(ptr noundef %5)
  %6 = load ptr, ptr %2, align 8, !tbaa !104
  %7 = getelementptr inbounds nuw %struct.AdaptiveModel, ptr %6, i32 0, i32 6
  %8 = getelementptr inbounds [2 x ptr], ptr %7, i64 0, i64 1
  call void @av_freep(ptr noundef %8)
  ret void
}

; Function Attrs: cold nounwind optsize uwtable
define internal i32 @rka_decode_close(ptr noundef %0) #0 {
  %2 = alloca ptr, align 8
  %3 = alloca ptr, align 8
  %4 = alloca i32, align 4
  %5 = alloca i32, align 4
  %6 = alloca ptr, align 8
  %7 = alloca i32, align 4
  store ptr %0, ptr %2, align 8, !tbaa !4
  call void @llvm.lifetime.start.p0(i64 8, ptr %3) #9
  %8 = load ptr, ptr %2, align 8, !tbaa !4
  %9 = getelementptr inbounds nuw %struct.AVCodecContext, ptr %8, i32 0, i32 6
  %10 = load ptr, ptr %9, align 8, !tbaa !9
  store ptr %10, ptr %3, align 8, !tbaa !29
  call void @llvm.lifetime.start.p0(i64 4, ptr %4) #9
  store i32 0, ptr %4, align 4, !tbaa !50
  br label %11

11:                                               ; preds = %41, %1
  %12 = load i32, ptr %4, align 4, !tbaa !50
  %13 = icmp slt i32 %12, 2
  br i1 %13, label %15, label %14

14:                                               ; preds = %11
  store i32 2, ptr %5, align 4
  call void @llvm.lifetime.end.p0(i64 4, ptr %4) #9
  br label %44

15:                                               ; preds = %11
  call void @llvm.lifetime.start.p0(i64 8, ptr %6) #9
  %16 = load ptr, ptr %3, align 8, !tbaa !29
  %17 = getelementptr inbounds nuw %struct.RKAContext, ptr %16, i32 0, i32 2
  %18 = load i32, ptr %4, align 4, !tbaa !50
  %19 = sext i32 %18 to i64
  %20 = getelementptr inbounds [2 x %struct.ChContext], ptr %17, i64 0, i64 %19
  store ptr %20, ptr %6, align 8, !tbaa !84
  call void @llvm.lifetime.start.p0(i64 4, ptr %7) #9
  store i32 0, ptr %7, align 4, !tbaa !50
  br label %21

21:                                               ; preds = %31, %15
  %22 = load i32, ptr %7, align 4, !tbaa !50
  %23 = icmp slt i32 %22, 11
  br i1 %23, label %25, label %24

24:                                               ; preds = %21
  store i32 5, ptr %5, align 4
  call void @llvm.lifetime.end.p0(i64 4, ptr %7) #9
  br label %34

25:                                               ; preds = %21
  %26 = load ptr, ptr %6, align 8, !tbaa !84
  %27 = getelementptr inbounds nuw %struct.ChContext, ptr %26, i32 0, i32 11
  %28 = load i32, ptr %7, align 4, !tbaa !50
  %29 = sext i32 %28 to i64
  %30 = getelementptr inbounds [11 x %struct.AdaptiveModel], ptr %27, i64 0, i64 %29
  call void @adaptive_model_free(ptr noundef %30)
  br label %31

31:                                               ; preds = %25
  %32 = load i32, ptr %7, align 4, !tbaa !50
  %33 = add nsw i32 %32, 1
  store i32 %33, ptr %7, align 4, !tbaa !50
  br label %21, !llvm.loop !86

34:                                               ; preds = %24
  %35 = load ptr, ptr %6, align 8, !tbaa !84
  %36 = getelementptr inbounds nuw %struct.ChContext, ptr %35, i32 0, i32 8
  call void @adaptive_model_free(ptr noundef %36)
  %37 = load ptr, ptr %6, align 8, !tbaa !84
  %38 = getelementptr inbounds nuw %struct.ChContext, ptr %37, i32 0, i32 10
  call void @adaptive_model_free(ptr noundef %38)
  %39 = load ptr, ptr %6, align 8, !tbaa !84
  %40 = getelementptr inbounds nuw %struct.ChContext, ptr %39, i32 0, i32 9
  call void @adaptive_model_free(ptr noundef %40)
  call void @llvm.lifetime.end.p0(i64 8, ptr %6) #9
  br label %41

41:                                               ; preds = %34
  %42 = load i32, ptr %4, align 4, !tbaa !50
  %43 = add nsw i32 %42, 1
  store i32 %43, ptr %4, align 4, !tbaa !50
  br label %11, !llvm.loop !87

44:                                               ; preds = %14
  %45 = load ptr, ptr %3, align 8, !tbaa !29
  %46 = getelementptr inbounds nuw %struct.RKAContext, ptr %45, i32 0, i32 12
  call void @adaptive_model_free(ptr noundef %46)
  %47 = load ptr, ptr %3, align 8, !tbaa !29
  %48 = getelementptr inbounds nuw %struct.RKAContext, ptr %47, i32 0, i32 13
  call void @adaptive_model_free(ptr noundef %48)
  store i32 1, ptr %5, align 4
  call void @llvm.lifetime.end.p0(i64 8, ptr %3) #9
  ret i32 0
}