; Function Attrs: cold nounwind optsize uwtable
define internal noundef i32 @rka_decode_close(ptr noundef readonly captures(none) %0) #0 {
  %2 = getelementptr inbounds nuw i8, ptr %0, i64 32
  %3 = load ptr, ptr %2, align 8, !tbaa !4
  %4 = getelementptr inbounds nuw i8, ptr %3, i64 48
  br label %10

5:                                                ; preds = %14
  %6 = getelementptr inbounds nuw i8, ptr %3, i64 2166496
  tail call void @av_freep(ptr noundef nonnull %6) #10
  %7 = getelementptr inbounds nuw i8, ptr %3, i64 2166504
  tail call void @av_freep(ptr noundef nonnull %7) #10
  %8 = getelementptr inbounds nuw i8, ptr %3, i64 2166536
  tail call void @av_freep(ptr noundef nonnull %8) #10
  %9 = getelementptr inbounds nuw i8, ptr %3, i64 2166544
  tail call void @av_freep(ptr noundef nonnull %9) #10
  ret i32 0

10:                                               ; preds = %1, %14
  %11 = phi i1 [ true, %1 ], [ false, %14 ]
  %indvars.iv17 = phi i64 [ 0, %1 ], [ 1, %14 ]
  %12 = getelementptr inbounds nuw [2 x %struct.ChContext], ptr %4, i64 0, i64 %indvars.iv17
  %13 = getelementptr inbounds nuw i8, ptr %12, i64 176
  br label %21

14:                                               ; preds = %21
  %15 = getelementptr inbounds nuw i8, ptr %12, i64 80
  tail call void @av_freep(ptr noundef nonnull %15) #10
  %16 = getelementptr inbounds nuw i8, ptr %12, i64 88
  tail call void @av_freep(ptr noundef nonnull %16) #10
  %17 = getelementptr inbounds nuw i8, ptr %12, i64 160
  tail call void @av_freep(ptr noundef nonnull %17) #10
  %18 = getelementptr inbounds nuw i8, ptr %12, i64 168
  tail call void @av_freep(ptr noundef nonnull %18) #10
  %19 = getelementptr inbounds nuw i8, ptr %12, i64 120
  tail call void @av_freep(ptr noundef nonnull %19) #10
  %20 = getelementptr inbounds nuw i8, ptr %12, i64 128
  tail call void @av_freep(ptr noundef nonnull %20) #10
  br i1 %11, label %10, label %5, !llvm.loop !96

21:                                               ; preds = %10, %21
  %indvars.iv = phi i64 [ 0, %10 ], [ %indvars.iv.next, %21 ]
  %22 = getelementptr inbounds nuw [11 x %struct.AdaptiveModel], ptr %13, i64 0, i64 %indvars.iv
  %23 = getelementptr inbounds nuw i8, ptr %22, i64 24
  tail call void @av_freep(ptr noundef nonnull %23) #10
  %24 = getelementptr inbounds nuw i8, ptr %22, i64 32
  tail call void @av_freep(ptr noundef nonnull %24) #10
  %indvars.iv.next = add nuw nsw i64 %indvars.iv, 1
  %exitcond.not = icmp eq i64 %indvars.iv.next, 11
  br i1 %exitcond.not, label %14, label %21, !llvm.loop !97
}